; Function Attrs: mustprogress uwtable
define hidden noundef zeroext i1 @_ZNK8facebook6hermes7tracing10SynthTrace18CreateBigIntRecordeqERKNS2_6RecordE(ptr noundef nonnull align 8 dereferenceable(40) %this, ptr noundef nonnull align 8 dereferenceable(16) %that) unnamed_addr #1 align 2 {
entry:
  %vtable.i = load ptr, ptr %this, align 8
  %vfn.i = getelementptr inbounds i8, ptr %vtable.i, i64 16
  %0 = load ptr, ptr %vfn.i, align 8
  %call.i = tail call noundef i32 %0(ptr noundef nonnull align 8 dereferenceable(16) %this)
  %vtable2.i = load ptr, ptr %that, align 8
  %vfn3.i = getelementptr inbounds i8, ptr %vtable2.i, i64 16
  %1 = load ptr, ptr %vfn3.i, align 8
  %call4.i = tail call noundef i32 %1(ptr noundef nonnull align 8 dereferenceable(16) %that)
  %cmp.i = icmp eq i32 %call.i, %call4.i
  br i1 %cmp.i, label %if.end, label %return

if.end:                                           ; preds = %entry
  %2 = tail call ptr @__dynamic_cast(ptr nonnull %that, ptr nonnull @_ZTIN8facebook6hermes7tracing10SynthTrace6RecordE, ptr nonnull @_ZTIN8facebook6hermes7tracing10SynthTrace18CreateBigIntRecordE, i64 0) #23
  %3 = icmp eq ptr %2, null
  br i1 %3, label %dynamic_cast.bad_cast, label %dynamic_cast.end

dynamic_cast.bad_cast:                            ; preds = %if.end
  tail call void @__cxa_bad_cast() #26
  unreachable

dynamic_cast.end:                                 ; preds = %if.end
  %objID_ = getelementptr inbounds i8, ptr %this, i64 16
  %4 = load i64, ptr %objID_, align 8
  %objID_2 = getelementptr inbounds i8, ptr %2, i64 16
  %5 = load i64, ptr %objID_2, align 8
  %cmp = icmp eq i64 %4, %5
  br i1 %cmp, label %land.lhs.true, label %return

land.lhs.true:                                    ; preds = %dynamic_cast.end
  %method_ = getelementptr inbounds i8, ptr %this, i64 24
  %6 = load i32, ptr %method_, align 8
  %method_3 = getelementptr inbounds i8, ptr %2, i64 24
  %7 = load i32, ptr %method_3, align 8
  %cmp4 = icmp eq i32 %6, %7
  br i1 %cmp4, label %land.rhs, label %return

land.rhs:                                         ; preds = %land.lhs.true
  %bits_ = getelementptr inbounds i8, ptr %this, i64 32
  %8 = load i64, ptr %bits_, align 8
  %bits_5 = getelementptr inbounds i8, ptr %2, i64 32
  %9 = load i64, ptr %bits_5, align 8
  %cmp6 = icmp eq i64 %8, %9
  br label %return

return:                                           ; preds = %dynamic_cast.end, %land.lhs.true, %land.rhs, %entry
  %retval.0 = phi i1 [ false, %entry ], [ false, %land.lhs.true ], [ false, %dynamic_cast.end ], [ %cmp6, %land.rhs ]
  ret i1 %retval.0
}